; Function Attrs: nounwind uwtable
define ptr @l_Lean_Meta_reduceNat_x3f___lambda__1___boxed(ptr noundef %0) #1 {
  %2 = ptrtoint ptr %0 to i64
  %3 = and i64 %2, 1
  %.not.i3 = icmp eq i64 %3, 0
  br i1 %.not.i3, label %14, label %4, !prof !16

4:                                                ; preds = %1
  %5 = lshr i64 %2, 1
  %6 = add nuw i64 %5, 1
  %7 = icmp sgt i64 %6, -1
  br i1 %7, label %8, label %12, !prof !11

8:                                                ; preds = %4
  %9 = shl nuw i64 %6, 1
  %10 = or disjoint i64 %9, 1
  %11 = inttoptr i64 %10 to ptr
  br label %lean_dec.exit

12:                                               ; preds = %4
  %13 = tail call ptr @lean_big_usize_to_nat(i64 noundef range(i64 0, -1) %6) #5
  br label %lean_dec.exit

14:                                               ; preds = %1
  %15 = tail call ptr @lean_nat_big_add(ptr noundef %0, ptr noundef nonnull inttoptr (i64 3 to ptr)) #5
  %16 = load i32, ptr %0, align 4, !tbaa !4
  %17 = icmp sgt i32 %16, 1
  br i1 %17, label %18, label %20, !prof !11

18:                                               ; preds = %14
  %19 = add nsw i32 %16, -1
  store i32 %19, ptr %0, align 4, !tbaa !4
  br label %lean_dec.exit

20:                                               ; preds = %14
  %.not.i = icmp eq i32 %16, 0
  br i1 %.not.i, label %lean_dec.exit, label %21

21:                                               ; preds = %20
  tail call void @lean_dec_ref_cold(ptr noundef nonnull %0) #5
  br label %lean_dec.exit

lean_dec.exit:                                    ; preds = %12, %8, %21, %20, %18
  %.0.i.i5 = phi ptr [ %15, %18 ], [ %15, %20 ], [ %15, %21 ], [ %13, %12 ], [ %11, %8 ]
  ret ptr %.0.i.i5
}